target datalayout = "e-m:e-p270:32:32-p271:32:32-p272:64:64-i64:64-i128:128-f80:128-n8:16:32:64-S128"
target triple = "x86_64-pc-linux-gnu"

%struct._archiveHandle = type { %struct.Archive, i32, ptr, ptr, i64, i64, i32, %struct.sqlparseInfo, i64, i32, ptr, i64, i64, i64, ptr, ptr, ptr, ptr, ptr, ptr, ptr, ptr, ptr, ptr, ptr, ptr, ptr, ptr, ptr, ptr, ptr, ptr, ptr, ptr, ptr, ptr, ptr, ptr, ptr, ptr, ptr, ptr, ptr, ptr, i32, i32, i8, i32, i8, i32, ptr, ptr, ptr, ptr, i32, i32, ptr, ptr, ptr, %struct.pg_compress_specification, i8, i32, i32, ptr, ptr, ptr, ptr, ptr, i32, ptr, i64, i64, i32, i32, i32, i32, ptr, ptr }
%struct.Archive = type { ptr, ptr, i32, ptr, i32, i8, i32, i32, i32, ptr, i32, i8, ptr, ptr, i8, i32, ptr }
%struct.sqlparseInfo = type { i32, i8, ptr }
%struct.pg_compress_specification = type { i32, i32, i32, i32, i8, ptr }
%struct.lclContext = type { ptr, ptr, ptr, ptr }
%struct._tocEntry = type { ptr, ptr, %struct.CatalogId, i32, i32, i8, ptr, ptr, ptr, ptr, i8, ptr, ptr, ptr, ptr, ptr, ptr, i32, ptr, ptr, ptr, i64, i32, i8, ptr, ptr, i32, ptr, i32, ptr, i32 }
%struct.CatalogId = type { i32, i32 }
%struct.lclTocEntry = type { ptr }
%struct.CompressFileHandle = type { ptr, ptr, ptr, ptr, ptr, ptr, ptr, ptr, ptr, %struct.pg_compress_specification, ptr }

@.str.15 = private unnamed_addr constant [2 x i8] c"w\00", align 1
@.str.16 = private unnamed_addr constant [36 x i8] c"could not open output file \22%s\22: %m\00", align 1

; Function Attrs: nounwind uwtable
define internal void @_StartData(ptr noundef %0, ptr noundef %1) #0 {
  %3 = alloca ptr, align 8
  %4 = alloca ptr, align 8
  %5 = alloca ptr, align 8
  %6 = alloca ptr, align 8
  %7 = alloca [1024 x i8], align 16
  store ptr %0, ptr %3, align 8
  store ptr %1, ptr %4, align 8
  call void @llvm.lifetime.start.p0(i64 8, ptr %5) #9
  %8 = load ptr, ptr %4, align 8
  %9 = getelementptr inbounds nuw %struct._tocEntry, ptr %8, i32 0, i32 20
  %10 = load ptr, ptr %9, align 8
  store ptr %10, ptr %5, align 8
  call void @llvm.lifetime.start.p0(i64 8, ptr %6) #9
  %11 = load ptr, ptr %3, align 8
  %12 = getelementptr inbounds nuw %struct._archiveHandle, ptr %11, i32 0, i32 63
  %13 = load ptr, ptr %12, align 8
  store ptr %13, ptr %6, align 8
  call void @llvm.lifetime.start.p0(i64 1024, ptr %7) #9
  %14 = load ptr, ptr %3, align 8
  %15 = getelementptr inbounds [1024 x i8], ptr %7, i64 0, i64 0
  %16 = load ptr, ptr %5, align 8
  %17 = getelementptr inbounds nuw %struct.lclTocEntry, ptr %16, i32 0, i32 0
  %18 = load ptr, ptr %17, align 8
  call void @setFilePath(ptr noundef %14, ptr noundef %15, ptr noundef %18)
  %19 = load ptr, ptr %3, align 8
  %20 = getelementptr inbounds nuw %struct._archiveHandle, ptr %19, i32 0, i32 59
  %21 = call ptr @InitCompressFileHandle(ptr noundef byval(%struct.pg_compress_specification) align 8 %20)
  %22 = load ptr, ptr %6, align 8
  %23 = getelementptr inbounds nuw %struct.lclContext, ptr %22, i32 0, i32 1
  store ptr %21, ptr %23, align 8
  %24 = load ptr, ptr %6, align 8
  %25 = getelementptr inbounds nuw %struct.lclContext, ptr %24, i32 0, i32 1
  %26 = load ptr, ptr %25, align 8
  %27 = getelementptr inbounds nuw %struct.CompressFileHandle, ptr %26, i32 0, i32 1
  %28 = load ptr, ptr %27, align 8
  %29 = getelementptr inbounds [1024 x i8], ptr %7, i64 0, i64 0
  %30 = load ptr, ptr %6, align 8
  %31 = getelementptr inbounds nuw %struct.lclContext, ptr %30, i32 0, i32 1
  %32 = load ptr, ptr %31, align 8
  %33 = call zeroext i1 %28(ptr noundef %29, ptr noundef @.str.15, ptr noundef %32)
  br i1 %33, label %39, label %34

34:                                               ; preds = %2
  br label %35

35:                                               ; preds = %34
  %36 = getelementptr inbounds [1024 x i8], ptr %7, i64 0, i64 0
  call void (i32, i32, ptr, ...) @pg_log_generic(i32 noundef 4, i32 noundef 0, ptr noundef @.str.16, ptr noundef %36)
  call void @exit_nicely(i32 noundef 1) #11
  unreachable

37:                                               ; No predecessors!
  br label %38

38:                                               ; preds = %37
  br label %39

39:                                               ; preds = %38, %2
  call void @llvm.lifetime.end.p0(i64 1024, ptr %7) #9
  call void @llvm.lifetime.end.p0(i64 8, ptr %6) #9
  call void @llvm.lifetime.end.p0(i64 8, ptr %5) #9
  ret void
}