; Function Attrs: nounwind uwtable
define internal void @_StartData(ptr noundef readonly captures(none) %0, ptr noundef readonly captures(none) %1) #0 {
  %3 = alloca [1024 x i8], align 16
  %4 = getelementptr inbounds nuw i8, ptr %1, i64 152
  %5 = load ptr, ptr %4, align 8
  %6 = getelementptr inbounds nuw i8, ptr %0, i64 592
  %7 = load ptr, ptr %6, align 8
  call void @llvm.lifetime.start.p0(i64 1024, ptr nonnull %3) #14
  %8 = load ptr, ptr %5, align 8
  %.val.val = load ptr, ptr %7, align 8
  call fastcc void @setFilePath(ptr %.val.val, ptr noundef %3, ptr noundef %8)
  %9 = getelementptr inbounds nuw i8, ptr %0, i64 544
  %10 = call ptr @InitCompressFileHandle(ptr noundef nonnull byval(%struct.pg_compress_specification) align 8 %9) #14
  %11 = getelementptr inbounds nuw i8, ptr %7, i64 8
  store ptr %10, ptr %11, align 8
  %12 = getelementptr inbounds nuw i8, ptr %10, i64 8
  %13 = load ptr, ptr %12, align 8
  %14 = call zeroext i1 %13(ptr noundef nonnull %3, ptr noundef nonnull @.str.15, ptr noundef %10) #14
  br i1 %14, label %16, label %15

15:                                               ; preds = %2
  call void (i32, i32, ptr, ...) @pg_log_generic(i32 noundef 4, i32 noundef 0, ptr noundef nonnull @.str.16, ptr noundef nonnull %3) #14
  call void @exit_nicely(i32 noundef 1) #15
  unreachable

16:                                               ; preds = %2
  call void @llvm.lifetime.end.p0(i64 1024, ptr nonnull %3) #14
  ret void
}